0000000 6E05 6500 6B06 6A00 A30C DAB1 7A04 3A40 
0000010 1208 7B02 3B12 1206 6C20 6D1F A310 DCD1 
0000020 22F6 6000 6100 A312 D011 7008 A30E D011 
0000030 6040 F015 F007 3000 1234 C60F 671E 6801 
0000040 69FF A30E D671 A310 DCD1 6004 E0A1 7CFE 
0000050 6006 E0A1 7C02 603F 8C02 DCD1 A30E D671 
0000060 8684 8794 603F 8602 611F 8712 471F 12AC 
0000070 4600 6801 463F 68FF 4700 6901 D671 3F01 
0000080 12AA 471F 12AA 6005 8075 3F00 12AA 6001 
0000090 F018 8060 61FC 8012 A30C D071 60FE 8903 
00000a0 22F6 7501 22F6 4560 12DE 1246 69FF 8060 
00000b0 80C5 3F01 12CA 6102 8015 3F01 12E0 8015 
00000c0 3F01 12EE 8015 3F01 12E8 6020 F018 A30E 
00000d0 7EFF 80E0 8004 6100 D011 3E00 1230 12DE 
00000e0 78FF 48FE 68FF 12EE 7801 4802 6801 6004 
00000f0 F018 69FF 1270 A314 F533 F265 F129 6337 
0000100 6400 D345 7305 F229 D345 00EE F000 8000 
0000110 FC00 AA00 0000 0000 
0x200: 6E 05 LD   VE, 0x05    ; VE = 0x05
0x202: 65 00 LD   V5, 0x00    ; V5 = 0x00
0x204: 6B 06 LD   VB, 0x06    ; VB = 0x06
0x206: 6A 00 LD   VA, 0x00    ; VA = 0x00
0x208: A3 0C LD   I,  0x30C   ; I = 0x30C
0x20a: DA B1 DRW  VA, VB, 0x1 ; Draw 0x1 on (VA,VB)
0x20c: 7A 04 ADD  VA, 0x04    ; VA += 0x04
0x20e: 3A 40 SE   VA, 0x40    ;
0x210: 12 08 JP   0x208       ; Jump to
0x212: 7B 02 ADD  VB, 0x02    ; VB += 0x02
0x214: 3B 12 SE   VB, 0x12    ;
0x216: 12 06 JP   0x206       ; Jump to
0x218: 6C 20 LD   VC, 0x20    ; VC = 0x20
0x21a: 6D 1F LD   VD, 0x1F    ; VD = 0x1F
0x21c: A3 10 LD   I,  0x310   ; I = 0x310
0x21e: DC D1 DRW  VC, VD, 0x1 ; Draw 0x1 on (VC,VD)
0x220: 22 F6 CALL 0x2F6       ; Call procedure
0x222: 60 00 LD   V0, 0x00    ; V0 = 0x00
0x224: 61 00 LD   V1, 0x00    ; V1 = 0x00
0x226: A3 12 LD   I,  0x312   ; I = 0x312
0x228: D0 11 DRW  V0, V1, 0x1 ; Draw 0x1 on (V0,V1)
0x22a: 70 08 ADD  V0, 0x08    ; V0 += 0x08
0x22c: A3 0E LD   I,  0x30E   ; I = 0x30E
0x22e: D0 11 DRW  V0, V1, 0x1 ; Draw 0x1 on (V0,V1)
0x230: 60 40 LD   V0, 0x40    ; V0 = 0x40
0x232: F0 15 LD   DT, V0      ;
0x234: F0 07 LD   V0, DT      ;
0x236: 30 00 SE   V0, 0x00    ;
0x238: 12 34 JP   0x234       ; Jump to
0x23a: C6 0F RND  V6, 0x0F    ; V6 = RND(0x0F)
0x23c: 67 1E LD   V7, 0x1E    ; V7 = 0x1E
0x23e: 68 01 LD   V8, 0x01    ; V8 = 0x01
0x240: 69 FF LD   V9, 0xFF    ; V9 = 0xFF
0x242: A3 0E LD   I,  0x30E   ; I = 0x30E
0x244: D6 71 DRW  V6, V7, 0x1 ; Draw 0x1 on (V6,V7)
0x246: A3 10 LD   I,  0x310   ; I = 0x310
0x248: DC D1 DRW  VC, VD, 0x1 ; Draw 0x1 on (VC,VD)
0x24a: 60 04 LD   V0, 0x04    ; V0 = 0x04
0x24c: E0 A1 SKNP V0          ;
0x24e: 7C FE ADD  VC, 0xFE    ; VC += 0xFE
0x250: 60 06 LD   V0, 0x06    ; V0 = 0x06
0x252: E0 A1 SKNP V0          ;
0x254: 7C 02 ADD  VC, 0x02    ; VC += 0x02
0x256: 60 3F LD   V0, 0x3F    ; V0 = 0x3F
0x258: 8C 02 AND  VC, V0      ; VC = VC & V0
0x25a: DC D1 DRW  VC, VD, 0x1 ; Draw 0x1 on (VC,VD)
0x25c: A3 0E LD   I,  0x30E   ; I = 0x30E
0x25e: D6 71 DRW  V6, V7, 0x1 ; Draw 0x1 on (V6,V7)
0x260: 86 84 ADD  V6, V8      ; V6 += V8
0x262: 87 94 ADD  V7, V9      ; V7 += V9
0x264: 60 3F LD   V0, 0x3F    ; V0 = 0x3F
0x266: 86 02 AND  V6, V0      ; V6 = V6 & V0
0x268: 61 1F LD   V1, 0x1F    ; V1 = 0x1F
0x26a: 87 12 AND  V7, V1      ; V7 = V7 & V1
0x26c: 47 1F SNE  V7, 0x1F    ;
0x26e: 12 AC JP   0x2AC       ; Jump to
0x270: 46 00 SNE  V6, 0x00    ;
0x272: 68 01 LD   V8, 0x01    ; V8 = 0x01
0x274: 46 3F SNE  V6, 0x3F    ;
0x276: 68 FF LD   V8, 0xFF    ; V8 = 0xFF
0x278: 47 00 SNE  V7, 0x00    ;
0x27a: 69 01 LD   V9, 0x01    ; V9 = 0x01
0x27c: D6 71 DRW  V6, V7, 0x1 ; Draw 0x1 on (V6,V7)
0x27e: 3F 01 SE   VF, 0x01    ;
0x280: 12 AA JP   0x2AA       ; Jump to
0x282: 47 1F SNE  V7, 0x1F    ;
0x284: 12 AA JP   0x2AA       ; Jump to
0x286: 60 05 LD   V0, 0x05    ; V0 = 0x05
0x288: 80 75 SUB  V0, V7      ; V0 -= V7
0x28a: 3F 00 SE   VF, 0x00    ;
0x28c: 12 AA JP   0x2AA       ; Jump to
0x28e: 60 01 LD   V0, 0x01    ; V0 = 0x01
0x290: F0 18 LD   ST, V0      ;
0x292: 80 60 LD   V0, V6      ; V0 = V6
0x294: 61 FC LD   V1, 0xFC    ; V1 = 0xFC
0x296: 80 12 AND  V0, V1      ; V0 = V0 & V1
0x298: A3 0C LD   I,  0x30C   ; I = 0x30C
0x29a: D0 71 DRW  V0, V7, 0x1 ; Draw 0x1 on (V0,V7)
0x29c: 60 FE LD   V0, 0xFE    ; V0 = 0xFE
0x29e: 89 03 XOR  V9, V0      ; V9 = V9 & V0
0x2a0: 22 F6 CALL 0x2F6       ; Call procedure
0x2a2: 75 01 ADD  V5, 0x01    ; V5 += 0x01
0x2a4: 22 F6 CALL 0x2F6       ; Call procedure
0x2a6: 45 60 SNE  V5, 0x60    ;
0x2a8: 12 DE JP   0x2DE       ; Jump to
0x2aa: 12 46 JP   0x246       ; Jump to
0x2ac: 69 FF LD   V9, 0xFF    ; V9 = 0xFF
0x2ae: 80 60 LD   V0, V6      ; V0 = V6
0x2b0: 80 C5 SUB  V0, VC      ; V0 -= VC
0x2b2: 3F 01 SE   VF, 0x01    ;
0x2b4: 12 CA JP   0x2CA       ; Jump to
0x2b6: 61 02 LD   V1, 0x02    ; V1 = 0x02
0x2b8: 80 15 SUB  V0, V1      ; V0 -= V1
0x2ba: 3F 01 SE   VF, 0x01    ;
0x2bc: 12 E0 JP   0x2E0       ; Jump to
0x2be: 80 15 SUB  V0, V1      ; V0 -= V1
0x2c0: 3F 01 SE   VF, 0x01    ;
0x2c2: 12 EE JP   0x2EE       ; Jump to
0x2c4: 80 15 SUB  V0, V1      ; V0 -= V1
0x2c6: 3F 01 SE   VF, 0x01    ;
0x2c8: 12 E8 JP   0x2E8       ; Jump to
0x2ca: 60 20 LD   V0, 0x20    ; V0 = 0x20
0x2cc: F0 18 LD   ST, V0      ;
0x2ce: A3 0E LD   I,  0x30E   ; I = 0x30E
0x2d0: 7E FF ADD  VE, 0xFF    ; VE += 0xFF
0x2d2: 80 E0 LD   V0, VE      ; V0 = VE
0x2d4: 80 04 ADD  V0, V0      ; V0 += V0
0x2d6: 61 00 LD   V1, 0x00    ; V1 = 0x00
0x2d8: D0 11 DRW  V0, V1, 0x1 ; Draw 0x1 on (V0,V1)
0x2da: 3E 00 SE   VE, 0x00    ;
0x2dc: 12 30 JP   0x230       ; Jump to
0x2de: 12 DE JP   0x2DE       ; Jump to
0x2e0: 78 FF ADD  V8, 0xFF    ; V8 += 0xFF
0x2e2: 48 FE SNE  V8, 0xFE    ;
0x2e4: 68 FF LD   V8, 0xFF    ; V8 = 0xFF
0x2e6: 12 EE JP   0x2EE       ; Jump to
0x2e8: 78 01 ADD  V8, 0x01    ; V8 += 0x01
0x2ea: 48 02 SNE  V8, 0x02    ;
0x2ec: 68 01 LD   V8, 0x01    ; V8 = 0x01
0x2ee: 60 04 LD   V0, 0x04    ; V0 = 0x04
0x2f0: F0 18 LD   ST, V0      ;
0x2f2: 69 FF LD   V9, 0xFF    ; V9 = 0xFF
0x2f4: 12 70 JP   0x270       ; Jump to
0x2f6: A3 14 LD   I,  0x314   ; I = 0x314
0x2f8: F5 33 LD   B, V5       ; B = V5
0x2fa: F2 65 LD   V2, [I]     ; V2 = *I
0x2fc: F1 29 LD   F, V1       ; F = V1
0x2fe: 63 37 LD   V3, 0x37    ; V3 = 0x37
0x300: 64 00 LD   V4, 0x00    ; V4 = 0x00
0x302: D3 45 DRW  V3, V4, 0x5 ; Draw 0x5 on (V3,V4)
0x304: 73 05 ADD  V3, 0x05    ; V3 += 0x05
0x306: F2 29 LD   F, V2       ; F = V2
0x308: D3 45 DRW  V3, V4, 0x5 ; Draw 0x5 on (V3,V4)
0x30a: 00 EE 00 EE RET        ; Return to address on stack
0x30c: F0 00 UNKNOWN OPCODE   ; UNKNOWN
0x30e: 80 00 LD   V0, V0      ; V0 = V0
0x310: FC 00 UNKNOWN OPCODE   ; UNKNOWN
0x312: AA 00 LD   I,  0xA00   ; I = 0xA00
0x314: 00 00 SYS  0x000UNKNOWN; UNKNOWN
0x316: 00 00 SYS  0x000UNKNOWN; UNKNOWN

