	.file	"problem1.c"
	.text
	.section	.rodata
.LC0:
	.string	"rb"
.LC1:
	.string	"BytesRead: %d 0x%08x\n"
.LC2:
	.string	"Oops Reading Header!"
.LC3:
	.string	"Unable to Open File!"
	.text
	.globl	ParseFileHdr
	.type	ParseFileHdr, @function
ParseFileHdr:
.LFB0:
	.cfi_startproc
	pushq	%rbp
	.cfi_def_cfa_offset 16
	.cfi_offset 6, -16
	movq	%rsp, %rbp
	.cfi_def_cfa_register 6
	subq	$144, %rsp
	movq	%rdi, -136(%rbp)
	movq	-136(%rbp), %rax
	leaq	.LC0(%rip), %rsi
	movq	%rax, %rdi
	call	fopen@PLT
	movq	%rax, -8(%rbp)
	cmpq	$0, -8(%rbp)
	je	.L2
	movq	-8(%rbp), %rdx
	leaq	-128(%rbp), %rax
	movq	%rdx, %rcx
	movl	$100, %edx
	movl	$1, %esi
	movq	%rax, %rdi
	call	fread@PLT
	movq	-8(%rbp), %rax
	movq	%rax, %rdi
	call	fclose@PLT
	movq	-8(%rbp), %rax
	movq	%rax, %rdi
	call	ftell@PLT
	movq	%rax, -16(%rbp)
	movq	-16(%rbp), %rdx
	movq	-16(%rbp), %rax
	movq	%rax, %rsi
	leaq	.LC1(%rip), %rdi
	movl	$0, %eax
	call	printf@PLT
	cmpq	$0, -16(%rbp)
	je	.L4
	leaq	.LC2(%rip), %rdi
	call	puts@PLT
	jmp	.L4
.L2:
	leaq	.LC3(%rip), %rdi
	call	puts@PLT
.L4:
	nop
	leave
	.cfi_def_cfa 7, 8
	ret
	.cfi_endproc
.LFE0:
	.size	ParseFileHdr, .-ParseFileHdr
	.globl	main
	.type	main, @function
main:
.LFB1:
	.cfi_startproc
	pushq	%rbp
	.cfi_def_cfa_offset 16
	.cfi_offset 6, -16
	movq	%rsp, %rbp
	.cfi_def_cfa_register 6
	subq	$16, %rsp
	movl	%edi, -4(%rbp)
	movq	%rsi, -16(%rbp)
	movq	-16(%rbp), %rax
	addq	$8, %rax
	movq	(%rax), %rax
	movq	%rax, %rdi
	call	ParseFileHdr
	movl	$0, %eax
	leave
	.cfi_def_cfa 7, 8
	ret
	.cfi_endproc
.LFE1:
	.size	main, .-main
	.ident	"GCC: (Debian 10.2.1-6) 10.2.1 20210110"
	.section	.note.GNU-stack,"",@progbits
